; Function Attrs: nounwind sspstrong uwtable
define internal noundef i64 @ossl_asn1obj_s_register(i64 %0, i64 noundef %1, i64 noundef %2, i64 noundef %3) #0 {
  %5 = alloca i64, align 8
  %6 = alloca i64, align 8
  %7 = alloca i64, align 8
  store i64 %1, ptr %5, align 8, !tbaa !17
  store i64 %2, ptr %6, align 8, !tbaa !17
  store i64 %3, ptr %7, align 8, !tbaa !17
  %8 = call ptr @rb_string_value_cstr(ptr noundef nonnull %5) #9
  %9 = call ptr @rb_string_value_cstr(ptr noundef nonnull %6) #9
  %10 = call ptr @rb_string_value_cstr(ptr noundef nonnull %7) #9
  %11 = load i64, ptr %5, align 8, !tbaa !17
  %12 = inttoptr i64 %11 to ptr
  %13 = load i64, ptr %12, align 8, !tbaa !32, !noalias !74
  %14 = and i64 %13, 8192
  %.not.i.i = icmp eq i64 %14, 0
  %15 = getelementptr inbounds nuw i8, ptr %12, i64 24
  br i1 %.not.i.i, label %RSTRING_PTR.exit, label %16

16:                                               ; preds = %4
  %.sroa.2.0.copyload.i = load ptr, ptr %15, align 8
  br label %RSTRING_PTR.exit

RSTRING_PTR.exit:                                 ; preds = %4, %16
  %.sroa.2.0.i = phi ptr [ %.sroa.2.0.copyload.i, %16 ], [ %15, %4 ]
  %17 = load i64, ptr %6, align 8, !tbaa !17
  %18 = inttoptr i64 %17 to ptr
  %19 = load i64, ptr %18, align 8, !tbaa !32, !noalias !77
  %20 = and i64 %19, 8192
  %.not.i.i1 = icmp eq i64 %20, 0
  %21 = getelementptr inbounds nuw i8, ptr %18, i64 24
  br i1 %.not.i.i1, label %RSTRING_PTR.exit4, label %22

22:                                               ; preds = %RSTRING_PTR.exit
  %.sroa.2.0.copyload.i2 = load ptr, ptr %21, align 8
  br label %RSTRING_PTR.exit4

RSTRING_PTR.exit4:                                ; preds = %RSTRING_PTR.exit, %22
  %.sroa.2.0.i3 = phi ptr [ %.sroa.2.0.copyload.i2, %22 ], [ %21, %RSTRING_PTR.exit ]
  %23 = load i64, ptr %7, align 8, !tbaa !17
  %24 = inttoptr i64 %23 to ptr
  %25 = load i64, ptr %24, align 8, !tbaa !32, !noalias !80
  %26 = and i64 %25, 8192
  %.not.i.i5 = icmp eq i64 %26, 0
  %27 = getelementptr inbounds nuw i8, ptr %24, i64 24
  br i1 %.not.i.i5, label %RSTRING_PTR.exit8, label %28

28:                                               ; preds = %RSTRING_PTR.exit4
  %.sroa.2.0.copyload.i6 = load ptr, ptr %27, align 8
  br label %RSTRING_PTR.exit8

RSTRING_PTR.exit8:                                ; preds = %RSTRING_PTR.exit4, %28
  %.sroa.2.0.i7 = phi ptr [ %.sroa.2.0.copyload.i6, %28 ], [ %27, %RSTRING_PTR.exit4 ]
  %29 = call i32 @OBJ_create(ptr noundef %.sroa.2.0.i, ptr noundef %.sroa.2.0.i3, ptr noundef %.sroa.2.0.i7) #9
  %.not = icmp eq i32 %29, 0
  br i1 %.not, label %30, label %32

30:                                               ; preds = %RSTRING_PTR.exit8
  %31 = load i64, ptr @eASN1Error, align 8, !tbaa !17
  call void (i64, ptr, ...) @ossl_raise(i64 noundef %31, ptr noundef null) #10
  unreachable

32:                                               ; preds = %RSTRING_PTR.exit8
  ret i64 20
}